; Function Attrs: mustprogress nounwind uwtable
define hidden void @_ZN6icu_7516DateIntervalInfo16DateIntervalSinkD0Ev(ptr noundef nonnull align 8 dereferenceable(80) %this) unnamed_addr #0 align 2 {
entry:
  store ptr getelementptr inbounds ({ [6 x ptr] }, ptr @_ZTVN6icu_7516DateIntervalInfo16DateIntervalSinkE, i64 0, i32 0, i64 2), ptr %this, align 8
  %nextCalendarType.i = getelementptr inbounds i8, ptr %this, i64 16
  tail call void @_ZN6icu_7513UnicodeStringD1Ev(ptr noundef nonnull align 8 dereferenceable(64) %nextCalendarType.i) #15
  tail call void @_ZN6icu_7512ResourceSinkD2Ev(ptr noundef nonnull align 8 dereferenceable(8) %this) #15
  tail call void @_ZN6icu_757UMemorydlEPv(ptr noundef nonnull %this) #15
  ret void
}